target datalayout = "e-m:e-p270:32:32-p271:32:32-p272:64:64-i64:64-i128:128-f80:128-n8:16:32:64-S128"
target triple = "x86_64-pc-linux-gnu"

%struct.Dch_Pars_t_ = type { i32, i32, i32, i32, i32, i32, i32, i32, i32, i32, i32, i32, i32, i32, i64, i32, i32 }
%struct.timespec = type { i64, i64 }

; Function Attrs: nounwind uwtable
define internal i64 @Abc_Clock() #0 {
  %1 = alloca i64, align 8
  %2 = alloca %struct.timespec, align 8
  %3 = alloca i64, align 8
  %4 = call i32 @clock_gettime(i32 noundef 1, ptr noundef %2) #10
  %5 = icmp slt i32 %4, 0
  br i1 %5, label %6, label %7

6:                                                ; preds = %0
  store i64 -1, ptr %1, align 8
  br label %18

7:                                                ; preds = %0
  %8 = getelementptr inbounds %struct.timespec, ptr %2, i32 0, i32 0
  %9 = load i64, ptr %8, align 8
  %10 = mul nsw i64 %9, 1000000
  store i64 %10, ptr %3, align 8
  %11 = getelementptr inbounds %struct.timespec, ptr %2, i32 0, i32 1
  %12 = load i64, ptr %11, align 8
  %13 = mul nsw i64 %12, 1000000
  %14 = sdiv i64 %13, 1000000000
  %15 = load i64, ptr %3, align 8
  %16 = add nsw i64 %15, %14
  store i64 %16, ptr %3, align 8
  %17 = load i64, ptr %3, align 8
  store i64 %17, ptr %1, align 8
  br label %18

18:                                               ; preds = %7, %6
  %19 = load i64, ptr %1, align 8
  ret i64 %19
}

; Function Attrs: nounwind uwtable
define ptr @Abc_NtkDch(ptr noundef %0, ptr noundef %1) #0 {
  %3 = alloca ptr, align 8
  %4 = alloca ptr, align 8
  %5 = alloca ptr, align 8
  %6 = alloca ptr, align 8
  %7 = alloca ptr, align 8
  %8 = alloca ptr, align 8
  %9 = alloca ptr, align 8
  %10 = alloca i64, align 8
  store ptr %0, ptr %4, align 8
  store ptr %1, ptr %5, align 8
  %11 = load ptr, ptr %4, align 8
  %12 = call ptr @Abc_NtkToDar(ptr noundef %11, i32 noundef 0, i32 noundef 0)
  store ptr %12, ptr %6, align 8
  %13 = load ptr, ptr %6, align 8
  %14 = icmp eq ptr %13, null
  br i1 %14, label %15, label %16

15:                                               ; preds = %2
  store ptr null, ptr %3, align 8
  br label %76

16:                                               ; preds = %2
  %17 = load ptr, ptr %5, align 8
  %18 = getelementptr inbounds %struct.Dch_Pars_t_, ptr %17, i32 0, i32 9
  %19 = load i32, ptr %18, align 4
  %20 = icmp ne i32 %19, 0
  br i1 %20, label %21, label %25

21:                                               ; preds = %16
  %22 = load ptr, ptr %6, align 8
  %23 = load ptr, ptr %5, align 8
  %24 = call ptr @Dar_ManChoiceNew(ptr noundef %22, ptr noundef %23)
  store ptr %24, ptr %6, align 8
  br label %70

25:                                               ; preds = %16
  %26 = call i64 @Abc_Clock()
  store i64 %26, ptr %10, align 8
  %27 = load ptr, ptr %5, align 8
  %28 = getelementptr inbounds %struct.Dch_Pars_t_, ptr %27, i32 0, i32 3
  %29 = load i32, ptr %28, align 4
  %30 = icmp ne i32 %29, 0
  br i1 %30, label %31, label %43

31:                                               ; preds = %25
  %32 = load ptr, ptr %6, align 8
  %33 = load ptr, ptr %5, align 8
  %34 = getelementptr inbounds %struct.Dch_Pars_t_, ptr %33, i32 0, i32 6
  %35 = load i32, ptr %34, align 8
  %36 = load ptr, ptr %5, align 8
  %37 = getelementptr inbounds %struct.Dch_Pars_t_, ptr %36, i32 0, i32 11
  %38 = load i32, ptr %37, align 4
  %39 = load ptr, ptr %5, align 8
  %40 = getelementptr inbounds %struct.Dch_Pars_t_, ptr %39, i32 0, i32 13
  %41 = load i32, ptr %40, align 4
  %42 = call ptr @Dar_NewChoiceSynthesis(ptr noundef %32, i32 noundef 1, i32 noundef 1, i32 noundef %35, i32 noundef %38, i32 noundef %41)
  store ptr %42, ptr %9, align 8
  br label %47

43:                                               ; preds = %25
  %44 = load ptr, ptr %6, align 8
  %45 = call ptr @Gia_ManFromAig(ptr noundef %44)
  store ptr %45, ptr %9, align 8
  %46 = load ptr, ptr %6, align 8
  call void @Aig_ManStop(ptr noundef %46)
  br label %47

47:                                               ; preds = %43, %31
  %48 = call i64 @Abc_Clock()
  %49 = load i64, ptr %10, align 8
  %50 = sub nsw i64 %48, %49
  %51 = load ptr, ptr %5, align 8
  %52 = getelementptr inbounds %struct.Dch_Pars_t_, ptr %51, i32 0, i32 14
  store i64 %50, ptr %52, align 8
  %53 = load ptr, ptr %5, align 8
  %54 = getelementptr inbounds %struct.Dch_Pars_t_, ptr %53, i32 0, i32 7
  %55 = load i32, ptr %54, align 4
  %56 = icmp ne i32 %55, 0
  br i1 %56, label %57, label %61

57:                                               ; preds = %47
  %58 = load ptr, ptr %9, align 8
  %59 = load ptr, ptr %5, align 8
  %60 = call ptr @Cec_ComputeChoices(ptr noundef %58, ptr noundef %59)
  store ptr %60, ptr %6, align 8
  br label %69

61:                                               ; preds = %47
  %62 = load ptr, ptr %9, align 8
  %63 = call ptr @Gia_ManToAigSkip(ptr noundef %62, i32 noundef 3)
  store ptr %63, ptr %6, align 8
  %64 = load ptr, ptr %9, align 8
  call void @Gia_ManStop(ptr noundef %64)
  %65 = load ptr, ptr %6, align 8
  store ptr %65, ptr %7, align 8
  %66 = load ptr, ptr %5, align 8
  %67 = call ptr @Dch_ComputeChoices(ptr noundef %65, ptr noundef %66)
  store ptr %67, ptr %6, align 8
  %68 = load ptr, ptr %7, align 8
  call void @Aig_ManStop(ptr noundef %68)
  br label %69

69:                                               ; preds = %61, %57
  br label %70

70:                                               ; preds = %69, %21
  %71 = load ptr, ptr %4, align 8
  %72 = load ptr, ptr %6, align 8
  %73 = call ptr @Abc_NtkFromDarChoices(ptr noundef %71, ptr noundef %72)
  store ptr %73, ptr %8, align 8
  %74 = load ptr, ptr %6, align 8
  call void @Aig_ManStop(ptr noundef %74)
  %75 = load ptr, ptr %8, align 8
  store ptr %75, ptr %3, align 8
  br label %76

76:                                               ; preds = %70, %15
  %77 = load ptr, ptr %3, align 8
  ret ptr %77
}