; Function Attrs: nounwind uwtable
define ptr @Abc_NtkDch(ptr noundef %0, ptr noundef %1) local_unnamed_addr #1 {
  %3 = alloca %struct.timespec, align 8
  %4 = alloca %struct.timespec, align 8
  %5 = tail call ptr @Abc_NtkToDar(ptr noundef %0, i32 noundef 0, i32 noundef 0)
  %6 = icmp eq ptr %5, null
  br i1 %6, label %52, label %7

7:                                                ; preds = %2
  %8 = getelementptr inbounds nuw i8, ptr %1, i64 36
  %9 = load i32, ptr %8, align 4
  %.not = icmp eq i32 %9, 0
  br i1 %.not, label %12, label %10

10:                                               ; preds = %7
  %11 = tail call ptr @Dar_ManChoiceNew(ptr noundef nonnull %5, ptr noundef nonnull %1) #19
  br label %50

12:                                               ; preds = %7
  call void @llvm.lifetime.start.p0(i64 16, ptr nonnull %4)
  %13 = call i32 @clock_gettime(i32 noundef 1, ptr noundef nonnull %4) #19
  %14 = icmp slt i32 %13, 0
  br i1 %14, label %Abc_Clock.exit, label %15

15:                                               ; preds = %12
  %16 = load i64, ptr %4, align 8
  %.neg33 = mul i64 %16, -1000000
  %17 = getelementptr inbounds nuw i8, ptr %4, i64 8
  %18 = load i64, ptr %17, align 8
  %.neg = sdiv i64 %18, -1000
  %.neg34 = add i64 %.neg, %.neg33
  br label %Abc_Clock.exit

Abc_Clock.exit:                                   ; preds = %12, %15
  %.0.i.neg = phi i64 [ %.neg34, %15 ], [ 1, %12 ]
  call void @llvm.lifetime.end.p0(i64 16, ptr nonnull %4)
  %19 = getelementptr inbounds nuw i8, ptr %1, i64 12
  %20 = load i32, ptr %19, align 4
  %.not29 = icmp eq i32 %20, 0
  br i1 %.not29, label %29, label %21

21:                                               ; preds = %Abc_Clock.exit
  %22 = getelementptr inbounds nuw i8, ptr %1, i64 24
  %23 = load i32, ptr %22, align 8
  %24 = getelementptr inbounds nuw i8, ptr %1, i64 44
  %25 = load i32, ptr %24, align 4
  %26 = getelementptr inbounds nuw i8, ptr %1, i64 52
  %27 = load i32, ptr %26, align 4
  %28 = call ptr @Dar_NewChoiceSynthesis(ptr noundef nonnull %5, i32 noundef 1, i32 noundef 1, i32 noundef %23, i32 noundef %25, i32 noundef %27) #19
  br label %31

29:                                               ; preds = %Abc_Clock.exit
  %30 = call ptr @Gia_ManFromAig(ptr noundef nonnull %5) #19
  call void @Aig_ManStop(ptr noundef nonnull %5) #19
  br label %31

31:                                               ; preds = %29, %21
  %.026 = phi ptr [ %28, %21 ], [ %30, %29 ]
  call void @llvm.lifetime.start.p0(i64 16, ptr nonnull %3)
  %32 = call i32 @clock_gettime(i32 noundef 1, ptr noundef nonnull %3) #19
  %33 = icmp slt i32 %32, 0
  br i1 %33, label %Abc_Clock.exit32, label %34

34:                                               ; preds = %31
  %35 = load i64, ptr %3, align 8
  %36 = mul nsw i64 %35, 1000000
  %37 = getelementptr inbounds nuw i8, ptr %3, i64 8
  %38 = load i64, ptr %37, align 8
  %39 = sdiv i64 %38, 1000
  %40 = add nsw i64 %39, %36
  br label %Abc_Clock.exit32

Abc_Clock.exit32:                                 ; preds = %31, %34
  %.0.i31 = phi i64 [ %40, %34 ], [ -1, %31 ]
  call void @llvm.lifetime.end.p0(i64 16, ptr nonnull %3)
  %41 = add i64 %.0.i31, %.0.i.neg
  %42 = getelementptr inbounds nuw i8, ptr %1, i64 56
  store i64 %41, ptr %42, align 8
  %43 = getelementptr inbounds nuw i8, ptr %1, i64 28
  %44 = load i32, ptr %43, align 4
  %.not30 = icmp eq i32 %44, 0
  br i1 %.not30, label %47, label %45

45:                                               ; preds = %Abc_Clock.exit32
  %46 = call ptr @Cec_ComputeChoices(ptr noundef %.026, ptr noundef nonnull %1) #19
  br label %50

47:                                               ; preds = %Abc_Clock.exit32
  %48 = call ptr @Gia_ManToAigSkip(ptr noundef %.026, i32 noundef 3) #19
  call void @Gia_ManStop(ptr noundef %.026) #19
  %49 = call ptr @Dch_ComputeChoices(ptr noundef %48, ptr noundef nonnull %1) #19
  call void @Aig_ManStop(ptr noundef %48) #19
  br label %50

50:                                               ; preds = %45, %47, %10
  %.027 = phi ptr [ %11, %10 ], [ %46, %45 ], [ %49, %47 ]
  %51 = call ptr @Abc_NtkFromDarChoices(ptr noundef %0, ptr noundef %.027)
  call void @Aig_ManStop(ptr noundef %.027) #19
  br label %52

52:                                               ; preds = %2, %50
  %.0 = phi ptr [ %51, %50 ], [ null, %2 ]
  ret ptr %.0
}